target datalayout = "e-m:e-p270:32:32-p271:32:32-p272:64:64-i64:64-i128:128-f80:128-n8:16:32:64-S128"
target triple = "x86_64-pc-linux-gnu"

%struct.H5S_hyper_span_info_t = type { i32, ptr, ptr, [2 x %struct.H5S_hyper_op_info_t], ptr, ptr, [0 x i64] }
%struct.H5S_hyper_op_info_t = type { i64, %union.anon.1 }
%union.anon.1 = type { ptr }
%struct.H5S_hyper_span_t = type { i64, i64, ptr, ptr }

@H5S_init_g = external global i8, align 1
@H5_libterm_g = external global i8, align 1
@.str = private unnamed_addr constant [101 x i8] c"generated/home/dtcxzyw/WorkSpace/Projects/compilers/llvm-opt-benchmark/bench/hdf5/hdf5/src/H5Stest.c\00", align 1
@H5E_DATASPACE_g = external global i64, align 8
@H5E_INCONSISTENTSTATE_g = external global i64, align 8
@.str.8 = private unnamed_addr constant [45 x i8] c"the selection has inconsistent tail pointers\00", align 1
@__func__.H5S__check_spans_tail_ptr = private unnamed_addr constant [26 x i8] c"H5S__check_spans_tail_ptr\00", align 1

; Function Attrs: nounwind uwtable
define internal i32 @H5S__check_spans_tail_ptr(ptr noundef %0) #0 {
  %2 = alloca ptr, align 8
  %3 = alloca ptr, align 8
  %4 = alloca ptr, align 8
  %5 = alloca i32, align 4
  %6 = alloca i8, align 1
  store ptr %0, ptr %2, align 8, !tbaa !41
  call void @llvm.lifetime.start.p0(i64 8, ptr %3) #5
  call void @llvm.lifetime.start.p0(i64 8, ptr %4) #5
  store ptr null, ptr %4, align 8, !tbaa !42
  call void @llvm.lifetime.start.p0(i64 4, ptr %5) #5
  store i32 1, ptr %5, align 4, !tbaa !9
  call void @llvm.lifetime.start.p0(i64 1, ptr %6) #5
  store i8 0, ptr %6, align 1, !tbaa !11
  %7 = load i8, ptr @H5S_init_g, align 1, !tbaa !11, !range !13, !noundef !14
  %8 = trunc i8 %7 to i1
  br i1 %8, label %13, label %9

9:                                                ; preds = %1
  %10 = load i8, ptr @H5_libterm_g, align 1, !tbaa !11, !range !13, !noundef !14
  %11 = trunc i8 %10 to i1
  %12 = xor i1 %11, true
  br label %13

13:                                               ; preds = %9, %1
  %14 = phi i1 [ true, %1 ], [ %12, %9 ]
  %15 = xor i1 %14, true
  %16 = xor i1 %15, true
  %17 = zext i1 %16 to i32
  %18 = sext i32 %17 to i64
  %19 = call i64 @llvm.expect.i64(i64 %18, i64 1)
  %20 = icmp ne i64 %19, 0
  br i1 %20, label %21, label %91

21:                                               ; preds = %13
  %22 = load ptr, ptr %2, align 8, !tbaa !41
  %23 = getelementptr inbounds nuw %struct.H5S_hyper_span_info_t, ptr %22, i32 0, i32 4
  %24 = load ptr, ptr %23, align 8, !tbaa !42
  store ptr %24, ptr %3, align 8, !tbaa !42
  br label %25

25:                                               ; preds = %60, %21
  %26 = load ptr, ptr %3, align 8, !tbaa !42
  %27 = icmp ne ptr %26, null
  br i1 %27, label %28, label %64

28:                                               ; preds = %25
  %29 = load ptr, ptr %3, align 8, !tbaa !42
  store ptr %29, ptr %4, align 8, !tbaa !42
  %30 = load ptr, ptr %3, align 8, !tbaa !42
  %31 = getelementptr inbounds nuw %struct.H5S_hyper_span_t, ptr %30, i32 0, i32 2
  %32 = load ptr, ptr %31, align 8, !tbaa !44
  %33 = icmp ne ptr null, %32
  br i1 %33, label %34, label %60

34:                                               ; preds = %28
  %35 = load ptr, ptr %3, align 8, !tbaa !42
  %36 = getelementptr inbounds nuw %struct.H5S_hyper_span_t, ptr %35, i32 0, i32 2
  %37 = load ptr, ptr %36, align 8, !tbaa !44
  %38 = call i32 @H5S__check_spans_tail_ptr(ptr noundef %37)
  store i32 %38, ptr %5, align 4, !tbaa !9
  %39 = icmp slt i32 %38, 0
  br i1 %39, label %40, label %59

40:                                               ; preds = %34
  br label %41

41:                                               ; preds = %40
  br label %42

42:                                               ; preds = %41
  br label %43

43:                                               ; preds = %42
  %44 = load i64, ptr @H5E_DATASPACE_g, align 8, !tbaa !3
  %45 = load i64, ptr @H5E_INCONSISTENTSTATE_g, align 8, !tbaa !3
  %46 = call i32 (ptr, ptr, i32, i64, i64, ptr, ...) @H5E_printf_stack(ptr noundef @.str, ptr noundef @__func__.H5S__check_spans_tail_ptr, i32 noundef 185, i64 noundef %44, i64 noundef %45, ptr noundef @.str.8)
  br label %47

47:                                               ; preds = %43
  br label %48

48:                                               ; preds = %47
  store i8 1, ptr %6, align 1, !tbaa !11
  %49 = load i8, ptr %6, align 1, !tbaa !11, !range !13, !noundef !14
  %50 = trunc i8 %49 to i1
  %51 = zext i1 %50 to i8
  store i8 %51, ptr %6, align 1, !tbaa !11
  br label %52

52:                                               ; preds = %48
  br label %53

53:                                               ; preds = %52
  br label %54

54:                                               ; preds = %53
  store i32 -1, ptr %5, align 4, !tbaa !9
  br label %90

55:                                               ; No predecessors!
  br label %56

56:                                               ; preds = %55
  br label %57

57:                                               ; preds = %56
  br label %58

58:                                               ; preds = %57
  br label %59

59:                                               ; preds = %58, %34
  br label %60

60:                                               ; preds = %59, %28
  %61 = load ptr, ptr %3, align 8, !tbaa !42
  %62 = getelementptr inbounds nuw %struct.H5S_hyper_span_t, ptr %61, i32 0, i32 3
  %63 = load ptr, ptr %62, align 8, !tbaa !46
  store ptr %63, ptr %3, align 8, !tbaa !42
  br label %25, !llvm.loop !47

64:                                               ; preds = %25
  %65 = load ptr, ptr %4, align 8, !tbaa !42
  %66 = load ptr, ptr %2, align 8, !tbaa !41
  %67 = getelementptr inbounds nuw %struct.H5S_hyper_span_info_t, ptr %66, i32 0, i32 5
  %68 = load ptr, ptr %67, align 8, !tbaa !42
  %69 = icmp ne ptr %65, %68
  br i1 %69, label %70, label %89

70:                                               ; preds = %64
  br label %71

71:                                               ; preds = %70
  br label %72

72:                                               ; preds = %71
  br label %73

73:                                               ; preds = %72
  %74 = load i64, ptr @H5E_DATASPACE_g, align 8, !tbaa !3
  %75 = load i64, ptr @H5E_INCONSISTENTSTATE_g, align 8, !tbaa !3
  %76 = call i32 (ptr, ptr, i32, i64, i64, ptr, ...) @H5E_printf_stack(ptr noundef @.str, ptr noundef @__func__.H5S__check_spans_tail_ptr, i32 noundef 191, i64 noundef %74, i64 noundef %75, ptr noundef @.str.8)
  br label %77

77:                                               ; preds = %73
  br label %78

78:                                               ; preds = %77
  store i8 1, ptr %6, align 1, !tbaa !11
  %79 = load i8, ptr %6, align 1, !tbaa !11, !range !13, !noundef !14
  %80 = trunc i8 %79 to i1
  %81 = zext i1 %80 to i8
  store i8 %81, ptr %6, align 1, !tbaa !11
  br label %82

82:                                               ; preds = %78
  br label %83

83:                                               ; preds = %82
  br label %84

84:                                               ; preds = %83
  store i32 -1, ptr %5, align 4, !tbaa !9
  br label %90

85:                                               ; No predecessors!
  br label %86

86:                                               ; preds = %85
  br label %87

87:                                               ; preds = %86
  br label %88

88:                                               ; preds = %87
  br label %89

89:                                               ; preds = %88, %64
  br label %90

90:                                               ; preds = %89, %84, %54
  br label %91

91:                                               ; preds = %90, %13
  %92 = load i32, ptr %5, align 4, !tbaa !9
  call void @llvm.lifetime.end.p0(i64 1, ptr %6) #5
  call void @llvm.lifetime.end.p0(i64 4, ptr %5) #5
  call void @llvm.lifetime.end.p0(i64 8, ptr %4) #5
  call void @llvm.lifetime.end.p0(i64 8, ptr %3) #5
  ret i32 %92
}