; Function Attrs: nounwind uwtable
define internal fastcc range(i32 -1, 2) i32 @H5S__check_spans_tail_ptr(ptr noundef nonnull readonly captures(none) %0) unnamed_addr #0 {
  %2 = load i8, ptr @H5S_init_g, align 1, !tbaa !3, !range !7, !noundef !8
  %3 = trunc nuw i8 %2 to i1
  %4 = load i8, ptr @H5_libterm_g, align 1, !range !7
  %5 = trunc nuw i8 %4 to i1
  %6 = xor i1 %5, true
  %7 = select i1 %3, i1 true, i1 %6
  br i1 %7, label %8, label %22, !prof !9

8:                                                ; preds = %1
  %9 = getelementptr inbounds nuw i8, ptr %0, i64 56
  %.01118 = load ptr, ptr %9, align 8, !tbaa !41
  %.not19 = icmp eq ptr %.01118, null
  br i1 %.not19, label %._crit_edge, label %.lr.ph

.lr.ph:                                           ; preds = %8, %15
  %.01121 = phi ptr [ %.011, %15 ], [ %.01118, %8 ]
  %.120 = phi i32 [ %.2, %15 ], [ 1, %8 ]
  %10 = getelementptr inbounds nuw i8, ptr %.01121, i64 16
  %11 = load ptr, ptr %10, align 8, !tbaa !43
  %.not15 = icmp eq ptr %11, null
  br i1 %.not15, label %15, label %12

12:                                               ; preds = %.lr.ph
  %13 = tail call fastcc i32 @H5S__check_spans_tail_ptr(ptr noundef %11)
  %14 = icmp slt i32 %13, 0
  br i1 %14, label %.sink.split, label %15

15:                                               ; preds = %12, %.lr.ph
  %.2 = phi i32 [ %13, %12 ], [ %.120, %.lr.ph ]
  %16 = getelementptr inbounds nuw i8, ptr %.01121, i64 24
  %.011 = load ptr, ptr %16, align 8, !tbaa !41
  %.not = icmp eq ptr %.011, null
  br i1 %.not, label %._crit_edge, label %.lr.ph, !llvm.loop !45

._crit_edge:                                      ; preds = %15, %8
  %.010.lcssa = phi ptr [ null, %8 ], [ %.01121, %15 ]
  %.1.lcssa = phi i32 [ 1, %8 ], [ %.2, %15 ]
  %17 = getelementptr inbounds nuw i8, ptr %0, i64 64
  %18 = load ptr, ptr %17, align 8, !tbaa !41
  %.not14 = icmp eq ptr %.010.lcssa, %18
  br i1 %.not14, label %22, label %.sink.split

.sink.split:                                      ; preds = %12, %._crit_edge
  %.sink = phi i32 [ 191, %._crit_edge ], [ 185, %12 ]
  %19 = load i64, ptr @H5E_DATASPACE_g, align 8, !tbaa !10
  %20 = load i64, ptr @H5E_INCONSISTENTSTATE_g, align 8, !tbaa !10
  %21 = tail call i32 (ptr, ptr, i32, i64, i64, ptr, ...) @H5E_printf_stack(ptr noundef nonnull @.str, ptr noundef nonnull @__func__.H5S__check_spans_tail_ptr, i32 noundef %.sink, i64 noundef %19, i64 noundef %20, ptr noundef nonnull @.str.8) #5
  br label %22

22:                                               ; preds = %.sink.split, %._crit_edge, %1
  %.0 = phi i32 [ %.1.lcssa, %._crit_edge ], [ 1, %1 ], [ -1, %.sink.split ]
  ret i32 %.0
}